target datalayout = "e-m:e-p270:32:32-p271:32:32-p272:64:64-i64:64-i128:128-f80:128-n8:16:32:64-S128"
target triple = "x86_64-pc-linux-gnu"

@hf_gsm_bssmap_le_pos_data_disc = internal global i32 0, align 4
@hf_gsm_bssmap_le_pos_data_pos_method = internal global i32 0, align 4
@hf_gsm_bssmap_le_pos_data_usage = internal global i32 0, align 4

; Function Attrs: null_pointer_is_valid sspstrong uwtable
define internal zeroext i16 @de_bmaple_pos_dta(ptr noundef %0, ptr noundef %1, ptr noundef %2, i32 noundef %3, i32 noundef %4, ptr noundef %5, i32 noundef %6) #1 {
  %8 = alloca i16, align 2
  %9 = alloca ptr, align 8
  %10 = alloca ptr, align 8
  %11 = alloca ptr, align 8
  %12 = alloca i32, align 4
  %13 = alloca i32, align 4
  %14 = alloca ptr, align 8
  %15 = alloca i32, align 4
  %16 = alloca i32, align 4
  %17 = alloca i32, align 4
  %18 = alloca i32, align 4
  store ptr %0, ptr %9, align 8
  store ptr %1, ptr %10, align 8
  store ptr %2, ptr %11, align 8
  store i32 %3, ptr %12, align 4
  store i32 %4, ptr %13, align 4
  store ptr %5, ptr %14, align 8
  store i32 %6, ptr %15, align 4
  call void @llvm.lifetime.start.p0(i64 4, ptr %16) #3
  call void @llvm.lifetime.start.p0(i64 4, ptr %17) #3
  %19 = load i32, ptr %12, align 4
  store i32 %19, ptr %16, align 4
  %20 = load ptr, ptr %10, align 8
  %21 = load i32, ptr @hf_gsm_bssmap_le_pos_data_disc, align 4
  %22 = load ptr, ptr %9, align 8
  %23 = load i32, ptr %16, align 4
  %24 = call ptr @proto_tree_add_item_ret_uint(ptr noundef %20, i32 noundef %21, ptr noundef %22, i32 noundef %23, i32 noundef 1, i32 noundef 0, ptr noundef %17)
  %25 = load i32, ptr %16, align 4
  %26 = add i32 %25, 1
  store i32 %26, ptr %16, align 4
  %27 = load i32, ptr %17, align 4
  %28 = icmp ne i32 %27, 0
  br i1 %28, label %29, label %32

29:                                               ; preds = %7
  %30 = load i32, ptr %13, align 4
  %31 = trunc i32 %30 to i16
  store i16 %31, ptr %8, align 2
  store i32 1, ptr %18, align 4
  br label %55

32:                                               ; preds = %7
  br label %33

33:                                               ; preds = %39, %32
  %34 = load i32, ptr %16, align 4
  %35 = load i32, ptr %12, align 4
  %36 = load i32, ptr %13, align 4
  %37 = add i32 %35, %36
  %38 = icmp ult i32 %34, %37
  br i1 %38, label %39, label %52

39:                                               ; preds = %33
  %40 = load ptr, ptr %10, align 8
  %41 = load i32, ptr @hf_gsm_bssmap_le_pos_data_pos_method, align 4
  %42 = load ptr, ptr %9, align 8
  %43 = load i32, ptr %16, align 4
  %44 = call ptr @proto_tree_add_item(ptr noundef %40, i32 noundef %41, ptr noundef %42, i32 noundef %43, i32 noundef 1, i32 noundef 0)
  %45 = load ptr, ptr %10, align 8
  %46 = load i32, ptr @hf_gsm_bssmap_le_pos_data_usage, align 4
  %47 = load ptr, ptr %9, align 8
  %48 = load i32, ptr %16, align 4
  %49 = call ptr @proto_tree_add_item(ptr noundef %45, i32 noundef %46, ptr noundef %47, i32 noundef %48, i32 noundef 1, i32 noundef 0)
  %50 = load i32, ptr %16, align 4
  %51 = add i32 %50, 1
  store i32 %51, ptr %16, align 4
  br label %33, !llvm.loop !6

52:                                               ; preds = %33
  %53 = load i32, ptr %13, align 4
  %54 = trunc i32 %53 to i16
  store i16 %54, ptr %8, align 2
  store i32 1, ptr %18, align 4
  br label %55

55:                                               ; preds = %52, %29
  call void @llvm.lifetime.end.p0(i64 4, ptr %17) #3
  call void @llvm.lifetime.end.p0(i64 4, ptr %16) #3
  %56 = load i16, ptr %8, align 2
  ret i16 %56
}