; Function Attrs: null_pointer_is_valid sspstrong uwtable
define internal noundef zeroext i16 @de_bmaple_pos_dta(ptr noundef %0, ptr noundef %1, ptr readnone captures(none) %2, i32 noundef %3, i32 noundef %4, ptr readnone captures(none) %5, i32 %6) #1 {
  %8 = alloca i32, align 4
  call void @llvm.lifetime.start.p0(i64 4, ptr nonnull %8) #3
  %9 = load i32, ptr @hf_gsm_bssmap_le_pos_data_disc, align 4
  %10 = call ptr @proto_tree_add_item_ret_uint(ptr noundef %1, i32 noundef %9, ptr noundef %0, i32 noundef %3, i32 noundef 1, i32 noundef 0, ptr noundef nonnull %8)
  %11 = load i32, ptr %8, align 4
  %.not = icmp eq i32 %11, 0
  br i1 %.not, label %.preheader, label %.loopexit

.preheader:                                       ; preds = %7
  %12 = add i32 %4, %3
  %.018 = add i32 %3, 1
  %13 = icmp ult i32 %.018, %12
  br i1 %13, label %.lr.ph, label %.loopexit

.lr.ph:                                           ; preds = %.preheader, %.lr.ph
  %.019 = phi i32 [ %.0, %.lr.ph ], [ %.018, %.preheader ]
  %14 = load i32, ptr @hf_gsm_bssmap_le_pos_data_pos_method, align 4
  %15 = call ptr @proto_tree_add_item(ptr noundef %1, i32 noundef %14, ptr noundef %0, i32 noundef %.019, i32 noundef 1, i32 noundef 0)
  %16 = load i32, ptr @hf_gsm_bssmap_le_pos_data_usage, align 4
  %17 = call ptr @proto_tree_add_item(ptr noundef %1, i32 noundef %16, ptr noundef %0, i32 noundef %.019, i32 noundef 1, i32 noundef 0)
  %.0 = add nuw i32 %.019, 1
  %exitcond.not = icmp eq i32 %.0, %12
  br i1 %exitcond.not, label %.loopexit, label %.lr.ph, !llvm.loop !6

.loopexit:                                        ; preds = %.lr.ph, %.preheader, %7
  %.017 = trunc i32 %4 to i16
  call void @llvm.lifetime.end.p0(i64 4, ptr nonnull %8) #3
  ret i16 %.017
}